target datalayout = "e-m:e-p270:32:32-p271:32:32-p272:64:64-i64:64-i128:128-f80:128-n8:16:32:64-S128"
target triple = "x86_64-pc-linux-gnu"

%struct.mbedtls_ssl_context = type { ptr, i32, i32, i32, i32, i32, ptr, ptr, ptr, ptr, ptr, ptr, ptr, ptr, ptr, ptr, ptr, ptr, ptr, ptr, ptr, ptr, ptr, ptr, ptr, ptr, ptr, ptr, ptr, ptr, ptr, ptr, ptr, i32, i64, i64, i16, i64, i64, i64, i64, i32, i32, i8, i8, i32, i8, ptr, ptr, ptr, ptr, ptr, ptr, ptr, i32, i64, i64, [8 x i8], i16, ptr, ptr, ptr, i64, i32, i64, [12 x i8], [12 x i8], [32 x i8], i8, i8, ptr, ptr, %union.mbedtls_ssl_user_data_t }
%union.mbedtls_ssl_user_data_t = type { i64 }
%struct.mbedtls_ssl_config = type { i32, i32, i8, i8, i8, i8, i8, i8, i8, i8, i8, i8, i16, i8, i8, i8, ptr, i32, ptr, ptr, ptr, ptr, ptr, ptr, ptr, ptr, ptr, ptr, ptr, ptr, ptr, ptr, ptr, ptr, ptr, ptr, ptr, i64, ptr, ptr, ptr, ptr, ptr, ptr, ptr, ptr, %struct.mbedtls_mpi, %struct.mbedtls_mpi, ptr, i64, ptr, i64, ptr, i32, i32, i32, i32, [8 x i8], i32, i32, %union.mbedtls_ssl_user_data_t, ptr, ptr }
%struct.mbedtls_mpi = type { ptr, i16, i16 }
%struct.mbedtls_ssl_session = type { i8, i8, i8, i32, i64, i32, i64, [32 x i8], [48 x i8], ptr, i32, ptr, i64, i32, i64, i32, i8, i8, [48 x i8], ptr, i64, i32, %struct.mbedtls_ssl_tls13_application_secrets }
%struct.mbedtls_ssl_tls13_application_secrets = type { [64 x i8], [64 x i8], [64 x i8], [64 x i8] }

@.str = private unnamed_addr constant [130 x i8] c"generated/home/dtcxzyw/WorkSpace/Projects/compilers/llvm-opt-benchmark/bench/lief/bench_build/mbed_src/library/ssl_tls12_client.c\00", align 1
@.str.16 = private unnamed_addr constant [46 x i8] c"client hello, adding session ticket extension\00", align 1
@.str.17 = private unnamed_addr constant [37 x i8] c"sending session ticket of length %zu\00", align 1

; Function Attrs: alwaysinline nounwind uwtable
define internal void @mbedtls_put_unaligned_uint16(ptr noundef %0, i16 noundef zeroext %1) #4 {
  %3 = alloca ptr, align 8
  %4 = alloca i16, align 2
  store ptr %0, ptr %3, align 8, !tbaa !88
  store i16 %1, ptr %4, align 2, !tbaa !92
  %5 = load ptr, ptr %3, align 8, !tbaa !88
  call void @llvm.memcpy.p0.p0.i64(ptr align 1 %5, ptr align 2 %4, i64 2, i1 false)
  ret void
}

; Function Attrs: inlinehint nounwind uwtable
define internal i32 @mbedtls_ssl_chk_buf_ptr(ptr noundef %0, ptr noundef %1, i64 noundef %2) #3 {
  %4 = alloca ptr, align 8
  %5 = alloca ptr, align 8
  %6 = alloca i64, align 8
  store ptr %0, ptr %4, align 8, !tbaa !8
  store ptr %1, ptr %5, align 8, !tbaa !8
  store i64 %2, ptr %6, align 8, !tbaa !14
  %7 = load ptr, ptr %4, align 8, !tbaa !8
  %8 = load ptr, ptr %5, align 8, !tbaa !8
  %9 = icmp ugt ptr %7, %8
  br i1 %9, label %18, label %10

10:                                               ; preds = %3
  %11 = load i64, ptr %6, align 8, !tbaa !14
  %12 = load ptr, ptr %5, align 8, !tbaa !8
  %13 = load ptr, ptr %4, align 8, !tbaa !8
  %14 = ptrtoint ptr %12 to i64
  %15 = ptrtoint ptr %13 to i64
  %16 = sub i64 %14, %15
  %17 = icmp ugt i64 %11, %16
  br label %18

18:                                               ; preds = %10, %3
  %19 = phi i1 [ true, %3 ], [ %17, %10 ]
  %20 = zext i1 %19 to i32
  ret i32 %20
}

; Function Attrs: inlinehint nounwind uwtable
define internal i32 @mbedtls_ssl_conf_get_session_tickets(ptr noundef %0) #3 {
  %2 = alloca ptr, align 8
  store ptr %0, ptr %2, align 8, !tbaa !115
  %3 = load ptr, ptr %2, align 8, !tbaa !115
  %4 = getelementptr inbounds nuw %struct.mbedtls_ssl_config, ptr %3, i32 0, i32 11
  %5 = load i8, ptr %4, align 1, !tbaa !116
  %6 = zext i8 %5 to i32
  %7 = and i32 %6, 1
  %8 = icmp ne i32 %7, 0
  %9 = select i1 %8, i32 1, i32 0
  ret i32 %9
}

; Function Attrs: nounwind uwtable
define internal i32 @ssl_write_session_ticket_ext(ptr noundef %0, ptr noundef %1, ptr noundef %2, ptr noundef %3) #0 {
  %5 = alloca i32, align 4
  %6 = alloca ptr, align 8
  %7 = alloca ptr, align 8
  %8 = alloca ptr, align 8
  %9 = alloca ptr, align 8
  %10 = alloca ptr, align 8
  %11 = alloca i64, align 8
  %12 = alloca i32, align 4
  store ptr %0, ptr %6, align 8, !tbaa !3
  store ptr %1, ptr %7, align 8, !tbaa !8
  store ptr %2, ptr %8, align 8, !tbaa !8
  store ptr %3, ptr %9, align 8, !tbaa !12
  call void @llvm.lifetime.start.p0(i64 8, ptr %10) #11
  %13 = load ptr, ptr %7, align 8, !tbaa !8
  store ptr %13, ptr %10, align 8, !tbaa !8
  call void @llvm.lifetime.start.p0(i64 8, ptr %11) #11
  %14 = load ptr, ptr %6, align 8, !tbaa !3
  %15 = getelementptr inbounds nuw %struct.mbedtls_ssl_context, ptr %14, i32 0, i32 15
  %16 = load ptr, ptr %15, align 8, !tbaa !42
  %17 = getelementptr inbounds nuw %struct.mbedtls_ssl_session, ptr %16, i32 0, i32 12
  %18 = load i64, ptr %17, align 8, !tbaa !43
  store i64 %18, ptr %11, align 8, !tbaa !14
  %19 = load ptr, ptr %9, align 8, !tbaa !12
  store i64 0, ptr %19, align 8, !tbaa !14
  %20 = load ptr, ptr %6, align 8, !tbaa !3
  %21 = getelementptr inbounds nuw %struct.mbedtls_ssl_context, ptr %20, i32 0, i32 0
  %22 = load ptr, ptr %21, align 8, !tbaa !25
  %23 = call i32 @mbedtls_ssl_conf_get_session_tickets(ptr noundef %22)
  %24 = icmp eq i32 %23, 0
  br i1 %24, label %25, label %26

25:                                               ; preds = %4
  store i32 0, ptr %5, align 4
  store i32 1, ptr %12, align 4
  br label %75

26:                                               ; preds = %4
  %27 = load ptr, ptr %6, align 8, !tbaa !3
  call void (ptr, i32, ptr, i32, ptr, ...) @mbedtls_debug_print_msg(ptr noundef %27, i32 noundef 3, ptr noundef @.str, i32 noundef 373, ptr noundef @.str.16)
  br label %28

28:                                               ; preds = %26
  %29 = load ptr, ptr %10, align 8, !tbaa !8
  %30 = load ptr, ptr %8, align 8, !tbaa !8
  %31 = load i64, ptr %11, align 8, !tbaa !14
  %32 = add i64 4, %31
  %33 = call i32 @mbedtls_ssl_chk_buf_ptr(ptr noundef %29, ptr noundef %30, i64 noundef %32)
  %34 = icmp ne i32 %33, 0
  br i1 %34, label %35, label %36

35:                                               ; preds = %28
  store i32 -27136, ptr %5, align 4
  store i32 1, ptr %12, align 4
  br label %75

36:                                               ; preds = %28
  br label %37

37:                                               ; preds = %36
  br label %38

38:                                               ; preds = %37
  %39 = load ptr, ptr %10, align 8, !tbaa !8
  %40 = getelementptr inbounds i8, ptr %39, i64 0
  call void @mbedtls_put_unaligned_uint16(ptr noundef %40, i16 noundef zeroext 8960)
  %41 = load ptr, ptr %10, align 8, !tbaa !8
  %42 = getelementptr inbounds i8, ptr %41, i64 2
  store ptr %42, ptr %10, align 8, !tbaa !8
  %43 = load ptr, ptr %10, align 8, !tbaa !8
  %44 = getelementptr inbounds i8, ptr %43, i64 0
  %45 = load i64, ptr %11, align 8, !tbaa !14
  %46 = trunc i64 %45 to i16
  %47 = call i16 @llvm.bswap.i16(i16 %46)
  call void @mbedtls_put_unaligned_uint16(ptr noundef %44, i16 noundef zeroext %47)
  %48 = load ptr, ptr %10, align 8, !tbaa !8
  %49 = getelementptr inbounds i8, ptr %48, i64 2
  store ptr %49, ptr %10, align 8, !tbaa !8
  %50 = load ptr, ptr %9, align 8, !tbaa !12
  store i64 4, ptr %50, align 8, !tbaa !14
  %51 = load ptr, ptr %6, align 8, !tbaa !3
  %52 = getelementptr inbounds nuw %struct.mbedtls_ssl_context, ptr %51, i32 0, i32 15
  %53 = load ptr, ptr %52, align 8, !tbaa !42
  %54 = getelementptr inbounds nuw %struct.mbedtls_ssl_session, ptr %53, i32 0, i32 11
  %55 = load ptr, ptr %54, align 8, !tbaa !46
  %56 = icmp eq ptr %55, null
  br i1 %56, label %60, label %57

57:                                               ; preds = %38
  %58 = load i64, ptr %11, align 8, !tbaa !14
  %59 = icmp eq i64 %58, 0
  br i1 %59, label %60, label %61

60:                                               ; preds = %57, %38
  store i32 0, ptr %5, align 4
  store i32 1, ptr %12, align 4
  br label %75

61:                                               ; preds = %57
  %62 = load ptr, ptr %6, align 8, !tbaa !3
  %63 = load i64, ptr %11, align 8, !tbaa !14
  call void (ptr, i32, ptr, i32, ptr, ...) @mbedtls_debug_print_msg(ptr noundef %62, i32 noundef 3, ptr noundef @.str, i32 noundef 391, ptr noundef @.str.17, i64 noundef %63)
  %64 = load ptr, ptr %10, align 8, !tbaa !8
  %65 = load ptr, ptr %6, align 8, !tbaa !3
  %66 = getelementptr inbounds nuw %struct.mbedtls_ssl_context, ptr %65, i32 0, i32 15
  %67 = load ptr, ptr %66, align 8, !tbaa !42
  %68 = getelementptr inbounds nuw %struct.mbedtls_ssl_session, ptr %67, i32 0, i32 11
  %69 = load ptr, ptr %68, align 8, !tbaa !46
  %70 = load i64, ptr %11, align 8, !tbaa !14
  call void @llvm.memcpy.p0.p0.i64(ptr align 1 %64, ptr align 1 %69, i64 %70, i1 false)
  %71 = load i64, ptr %11, align 8, !tbaa !14
  %72 = load ptr, ptr %9, align 8, !tbaa !12
  %73 = load i64, ptr %72, align 8, !tbaa !14
  %74 = add i64 %73, %71
  store i64 %74, ptr %72, align 8, !tbaa !14
  store i32 0, ptr %5, align 4
  store i32 1, ptr %12, align 4
  br label %75

75:                                               ; preds = %61, %60, %35, %25
  call void @llvm.lifetime.end.p0(i64 8, ptr %11) #11
  call void @llvm.lifetime.end.p0(i64 8, ptr %10) #11
  %76 = load i32, ptr %5, align 4
  ret i32 %76
}