; Function Attrs: nounwind uwtable
define internal fastcc range(i32 -27136, 1) i32 @ssl_write_session_ticket_ext(ptr noundef %0, ptr noundef %1, ptr noundef %2, ptr noundef nonnull captures(none) initializes((0, 8)) %3) unnamed_addr #0 {
  %5 = getelementptr inbounds nuw i8, ptr %0, i64 104
  %6 = load ptr, ptr %5, align 8, !tbaa !37
  %7 = getelementptr inbounds nuw i8, ptr %6, i64 136
  %8 = load i64, ptr %7, align 8, !tbaa !38
  store i64 0, ptr %3, align 8, !tbaa !3
  %9 = load ptr, ptr %0, align 8, !tbaa !19
  %10 = getelementptr i8, ptr %9, i64 17
  %.val = load i8, ptr %10, align 1, !tbaa !41
  %11 = and i8 %.val, 1
  %12 = icmp eq i8 %11, 0
  br i1 %12, label %36, label %13

13:                                               ; preds = %4
  tail call void (ptr, i32, ptr, i32, ptr, ...) @mbedtls_debug_print_msg(ptr noundef nonnull %0, i32 noundef 3, ptr noundef nonnull @.str, i32 noundef 373, ptr noundef nonnull @.str.16) #14
  %14 = add i64 %8, 4
  %15 = icmp ule ptr %1, %2
  %16 = ptrtoint ptr %2 to i64
  %17 = ptrtoint ptr %1 to i64
  %18 = sub i64 %16, %17
  %19 = icmp ule i64 %14, %18
  %narrow.i.not = and i1 %15, %19
  br i1 %narrow.i.not, label %20, label %36

20:                                               ; preds = %13
  store i16 8960, ptr %1, align 1
  %21 = getelementptr inbounds nuw i8, ptr %1, i64 2
  %22 = trunc i64 %8 to i16
  %23 = tail call i16 @llvm.bswap.i16(i16 %22)
  store i16 %23, ptr %21, align 1
  store i64 4, ptr %3, align 8, !tbaa !3
  %24 = load ptr, ptr %5, align 8, !tbaa !37
  %25 = getelementptr inbounds nuw i8, ptr %24, i64 128
  %26 = load ptr, ptr %25, align 8, !tbaa !42
  %27 = icmp eq ptr %26, null
  %28 = icmp eq i64 %8, 0
  %or.cond = select i1 %27, i1 true, i1 %28
  br i1 %or.cond, label %36, label %29

29:                                               ; preds = %20
  %30 = getelementptr inbounds nuw i8, ptr %1, i64 4
  tail call void (ptr, i32, ptr, i32, ptr, ...) @mbedtls_debug_print_msg(ptr noundef nonnull %0, i32 noundef 3, ptr noundef nonnull @.str, i32 noundef 391, ptr noundef nonnull @.str.17, i64 noundef %8) #14
  %31 = load ptr, ptr %5, align 8, !tbaa !37
  %32 = getelementptr inbounds nuw i8, ptr %31, i64 128
  %33 = load ptr, ptr %32, align 8, !tbaa !42
  tail call void @llvm.memcpy.p0.p0.i64(ptr nonnull align 1 %30, ptr align 1 %33, i64 %8, i1 false)
  %34 = load i64, ptr %3, align 8, !tbaa !3
  %35 = add i64 %34, %8
  store i64 %35, ptr %3, align 8, !tbaa !3
  br label %36

36:                                               ; preds = %20, %13, %4, %29
  %.0 = phi i32 [ 0, %29 ], [ 0, %4 ], [ -27136, %13 ], [ 0, %20 ]
  ret i32 %.0
}